target datalayout = "e-m:e-p270:32:32-p271:32:32-p272:64:64-i64:64-i128:128-f80:128-n8:16:32:64-S128"
target triple = "x86_64-pc-linux-gnu"

%class.SaveSnapshotDialog = type { %class.QDialog, ptr, %class.SnapshotSetting }
%class.QDialog = type { %class.QWidget }
%class.QWidget = type { %class.QObject, %class.QPaintDevice, ptr }
%class.QObject = type { ptr, %class.QScopedPointer }
%class.QScopedPointer = type { ptr }
%class.QPaintDevice = type { ptr, i16, ptr }
%class.SnapshotSetting = type { %class.QString, %class.QString, i32, i32, i32, i8, i8, i8, i8 }
%class.QString = type { ptr }
%class.Ui_SaveSnapShotDialog = type { ptr, ptr, ptr, ptr, ptr, ptr, ptr, ptr, ptr, ptr, ptr, ptr, ptr, ptr, ptr, ptr, ptr, ptr, ptr, ptr, ptr, ptr, ptr, ptr, ptr, ptr, ptr, ptr }

; Function Attrs: mustprogress uwtable
define void @_ZN18SaveSnapshotDialog36on_useLayerNameCheckBox_stateChangedEi(ptr noundef nonnull align 8 dereferenceable(88) %0, i32 noundef %1) #0 align 2 {
  %3 = alloca ptr, align 8
  %4 = alloca i32, align 4
  store ptr %0, ptr %3, align 8
  store i32 %1, ptr %4, align 4
  %5 = load ptr, ptr %3, align 8
  %6 = load i32, ptr %4, align 4
  %7 = icmp eq i32 %6, 2
  br i1 %7, label %8, label %13

8:                                                ; preds = %2
  %9 = getelementptr inbounds %class.SaveSnapshotDialog, ptr %5, i32 0, i32 1
  %10 = load ptr, ptr %9, align 8
  %11 = getelementptr inbounds %class.Ui_SaveSnapShotDialog, ptr %10, i32 0, i32 8
  %12 = load ptr, ptr %11, align 8
  call void @_ZN7QWidget10setEnabledEb(ptr noundef nonnull align 8 dereferenceable(48) %12, i1 noundef zeroext false)
  br label %18

13:                                               ; preds = %2
  %14 = getelementptr inbounds %class.SaveSnapshotDialog, ptr %5, i32 0, i32 1
  %15 = load ptr, ptr %14, align 8
  %16 = getelementptr inbounds %class.Ui_SaveSnapShotDialog, ptr %15, i32 0, i32 8
  %17 = load ptr, ptr %16, align 8
  call void @_ZN7QWidget10setEnabledEb(ptr noundef nonnull align 8 dereferenceable(48) %17, i1 noundef zeroext true)
  br label %18

18:                                               ; preds = %13, %8
  ret void
}