; Function Attrs: mustprogress uwtable
define void @_ZN18SaveSnapshotDialog36on_useLayerNameCheckBox_stateChangedEi(ptr nocapture noundef nonnull readonly align 8 dereferenceable(88) %0, i32 noundef %1) local_unnamed_addr #0 align 2 {
  %3 = icmp ne i32 %1, 2
  %4 = getelementptr inbounds i8, ptr %0, i64 48
  %5 = load ptr, ptr %4, align 8
  %6 = getelementptr inbounds i8, ptr %5, i64 64
  %7 = load ptr, ptr %6, align 8
  tail call void @_ZN7QWidget10setEnabledEb(ptr noundef nonnull align 8 dereferenceable(48) %7, i1 noundef zeroext %3)
  ret void
}